target datalayout = "e-m:e-p270:32:32-p271:32:32-p272:64:64-i64:64-i128:128-f80:128-n8:16:32:64-S128"
target triple = "x86_64-pc-linux-gnu"

%struct._e_guid_t = type { i32, i16, i16, [8 x i8] }
%struct._GList = type { ptr, ptr, ptr }
%struct._packet_info = type { ptr, ptr, i32, i32, %struct.nstime_t, %struct.nstime_t, %struct.nstime_t, i32, ptr, ptr, ptr, ptr, %struct._address, %struct._address, %struct._address, %struct._address, %struct._address, %struct._address, i32, ptr, i32, %struct.anon, i32, i32, i32, i32, ptr, i32, ptr, ptr, i16, i16, i32, i32, i16, i32, i32, ptr, ptr, ptr, i8, i8, i16, i16, i16, i32, i16, i16, ptr, ptr, ptr, ptr, ptr, i32 }
%struct.nstime_t = type { i64, i32 }
%struct._address = type { i32, i32, ptr, ptr }
%struct.anon = type { i8, [3 x i8] }
%struct.dcom_marshaler_s = type { ptr, ptr, %struct._e_guid_t, ptr }

@uuid_null = internal constant %struct._e_guid_t zeroinitializer, align 4
@dcom_marshalers = internal global ptr null, align 8
@hf_dcom_objref = internal global i32 0, align 4
@ett_dcom_objref = internal global i32 0, align 4
@hf_dcom_objref_signature = internal global i32 0, align 4
@hf_dcom_objref_flags = internal global i32 0, align 4
@hf_dcom_iid = hidden global i32 0, align 4
@hf_dcom_objref_resolver_address = internal global i32 0, align 4
@hf_dcom_clsid = hidden global i32 0, align 4
@hf_dcom_objref_cbextension = internal global i32 0, align 4
@hf_dcom_objref_size = internal global i32 0, align 4
@hf_dcom_custobjref = internal global i32 0, align 4
@ett_dcom_custobjref = internal global i32 0, align 4

; Function Attrs: nounwind uwtable
define hidden ptr @dcom_get_routine_by_uuid(ptr noundef %0) #0 {
  %2 = alloca ptr, align 8
  %3 = alloca ptr, align 8
  %4 = alloca ptr, align 8
  %5 = alloca ptr, align 8
  store ptr %0, ptr %3, align 8
  %6 = load ptr, ptr %3, align 8
  %7 = call i32 @memcmp(ptr noundef %6, ptr noundef @uuid_null, i64 noundef 16) #8
  %8 = icmp eq i32 %7, 0
  br i1 %8, label %9, label %10

9:                                                ; preds = %1
  store ptr null, ptr %2, align 8
  br label %40

10:                                               ; preds = %1
  %11 = load ptr, ptr @dcom_marshalers, align 8
  store ptr %11, ptr %5, align 8
  br label %12

12:                                               ; preds = %37, %10
  %13 = load ptr, ptr %5, align 8
  %14 = icmp ne ptr %13, null
  br i1 %14, label %15, label %39

15:                                               ; preds = %12
  %16 = load ptr, ptr %5, align 8
  %17 = getelementptr inbounds %struct._GList, ptr %16, i32 0, i32 0
  %18 = load ptr, ptr %17, align 8
  store ptr %18, ptr %4, align 8
  %19 = load ptr, ptr %4, align 8
  %20 = getelementptr inbounds %struct.dcom_marshaler_s, ptr %19, i32 0, i32 2
  %21 = load ptr, ptr %3, align 8
  %22 = call i32 @memcmp(ptr noundef %20, ptr noundef %21, i64 noundef 16) #8
  %23 = icmp eq i32 %22, 0
  br i1 %23, label %24, label %28

24:                                               ; preds = %15
  %25 = load ptr, ptr %4, align 8
  %26 = getelementptr inbounds %struct.dcom_marshaler_s, ptr %25, i32 0, i32 3
  %27 = load ptr, ptr %26, align 8
  store ptr %27, ptr %2, align 8
  br label %40

28:                                               ; preds = %15
  br label %29

29:                                               ; preds = %28
  %30 = load ptr, ptr %5, align 8
  %31 = icmp ne ptr %30, null
  br i1 %31, label %32, label %36

32:                                               ; preds = %29
  %33 = load ptr, ptr %5, align 8
  %34 = getelementptr inbounds %struct._GList, ptr %33, i32 0, i32 1
  %35 = load ptr, ptr %34, align 8
  br label %37

36:                                               ; preds = %29
  br label %37

37:                                               ; preds = %36, %32
  %38 = phi ptr [ %35, %32 ], [ null, %36 ]
  store ptr %38, ptr %5, align 8
  br label %12, !llvm.loop !17

39:                                               ; preds = %12
  store ptr null, ptr %2, align 8
  br label %40

40:                                               ; preds = %39, %24, %9
  %41 = load ptr, ptr %2, align 8
  ret ptr %41
}

; Function Attrs: nounwind uwtable
define internal void @set_address(ptr noundef %0, i32 noundef %1, i32 noundef %2, ptr noundef %3) #0 {
  %5 = alloca ptr, align 8
  %6 = alloca i32, align 4
  %7 = alloca i32, align 4
  %8 = alloca ptr, align 8
  store ptr %0, ptr %5, align 8
  store i32 %1, ptr %6, align 4
  store i32 %2, ptr %7, align 4
  store ptr %3, ptr %8, align 8
  %9 = load i32, ptr %7, align 4
  %10 = icmp eq i32 %9, 0
  br i1 %10, label %11, label %14

11:                                               ; preds = %4
  br label %12

12:                                               ; preds = %11
  br label %13

13:                                               ; preds = %12
  br label %19

14:                                               ; preds = %4
  br label %15

15:                                               ; preds = %14
  br label %16

16:                                               ; preds = %15
  br label %17

17:                                               ; preds = %16
  br label %18

18:                                               ; preds = %17
  br label %19

19:                                               ; preds = %18, %13
  %20 = load i32, ptr %6, align 4
  %21 = load ptr, ptr %5, align 8
  %22 = getelementptr inbounds %struct._address, ptr %21, i32 0, i32 0
  store i32 %20, ptr %22, align 8
  %23 = load i32, ptr %7, align 4
  %24 = load ptr, ptr %5, align 8
  %25 = getelementptr inbounds %struct._address, ptr %24, i32 0, i32 1
  store i32 %23, ptr %25, align 4
  %26 = load ptr, ptr %8, align 8
  %27 = load ptr, ptr %5, align 8
  %28 = getelementptr inbounds %struct._address, ptr %27, i32 0, i32 2
  store ptr %26, ptr %28, align 8
  %29 = load ptr, ptr %5, align 8
  %30 = getelementptr inbounds %struct._address, ptr %29, i32 0, i32 3
  store ptr null, ptr %30, align 8
  ret void
}

; Function Attrs: nounwind uwtable
define internal i32 @dissect_dcom_CUSTOBJREF(ptr noundef %0, i32 noundef %1, ptr noundef %2, ptr noundef %3, ptr noundef %4, ptr noundef %5, i32 noundef %6, ptr noundef %7, ptr noundef %8) #0 {
  %10 = alloca ptr, align 8
  %11 = alloca i32, align 4
  %12 = alloca ptr, align 8
  %13 = alloca ptr, align 8
  %14 = alloca ptr, align 8
  %15 = alloca ptr, align 8
  %16 = alloca i32, align 4
  %17 = alloca ptr, align 8
  %18 = alloca ptr, align 8
  %19 = alloca i32, align 4
  %20 = alloca i32, align 4
  %21 = alloca i32, align 4
  %22 = alloca ptr, align 8
  %23 = alloca ptr, align 8
  %24 = alloca ptr, align 8
  store ptr %0, ptr %10, align 8
  store i32 %1, ptr %11, align 4
  store ptr %2, ptr %12, align 8
  store ptr %3, ptr %13, align 8
  store ptr %4, ptr %14, align 8
  store ptr %5, ptr %15, align 8
  store i32 %6, ptr %16, align 4
  store ptr %7, ptr %17, align 8
  store ptr %8, ptr %18, align 8
  store ptr null, ptr %24, align 8
  %25 = load i32, ptr @hf_dcom_custobjref, align 4
  store i32 %25, ptr %16, align 4
  %26 = load ptr, ptr %13, align 8
  %27 = load i32, ptr %16, align 4
  %28 = load ptr, ptr %10, align 8
  %29 = load i32, ptr %11, align 4
  %30 = call ptr @proto_tree_add_item(ptr noundef %26, i32 noundef %27, ptr noundef %28, i32 noundef %29, i32 noundef 0, i32 noundef 0)
  store ptr %30, ptr %22, align 8
  %31 = load ptr, ptr %22, align 8
  %32 = load i32, ptr @ett_dcom_custobjref, align 4
  %33 = call ptr @proto_item_add_subtree(ptr noundef %31, i32 noundef %32)
  store ptr %33, ptr %23, align 8
  %34 = load i32, ptr %11, align 4
  store i32 %34, ptr %21, align 4
  %35 = load ptr, ptr %10, align 8
  %36 = load i32, ptr %11, align 4
  %37 = load ptr, ptr %12, align 8
  %38 = load ptr, ptr %23, align 8
  %39 = load ptr, ptr %14, align 8
  %40 = load ptr, ptr %15, align 8
  %41 = load i32, ptr @hf_dcom_clsid, align 4
  %42 = load ptr, ptr %17, align 8
  %43 = call i32 @dissect_dcom_UUID(ptr noundef %35, i32 noundef %36, ptr noundef %37, ptr noundef %38, ptr noundef %39, ptr noundef %40, i32 noundef %41, ptr noundef %42)
  store i32 %43, ptr %11, align 4
  %44 = load ptr, ptr %10, align 8
  %45 = load i32, ptr %11, align 4
  %46 = load ptr, ptr %12, align 8
  %47 = load ptr, ptr %23, align 8
  %48 = load ptr, ptr %14, align 8
  %49 = load ptr, ptr %15, align 8
  %50 = load i32, ptr @hf_dcom_objref_cbextension, align 4
  %51 = call i32 @dissect_ndr_uint32(ptr noundef %44, i32 noundef %45, ptr noundef %46, ptr noundef %47, ptr noundef %48, ptr noundef %49, i32 noundef %50, ptr noundef %19)
  store i32 %51, ptr %11, align 4
  %52 = load ptr, ptr %10, align 8
  %53 = load i32, ptr %11, align 4
  %54 = load ptr, ptr %12, align 8
  %55 = load ptr, ptr %23, align 8
  %56 = load ptr, ptr %14, align 8
  %57 = load ptr, ptr %15, align 8
  %58 = load i32, ptr @hf_dcom_objref_size, align 4
  %59 = call i32 @dissect_ndr_uint32(ptr noundef %52, i32 noundef %53, ptr noundef %54, ptr noundef %55, ptr noundef %56, ptr noundef %57, i32 noundef %58, ptr noundef %20)
  store i32 %59, ptr %11, align 4
  %60 = load ptr, ptr %18, align 8
  %61 = call ptr @dcom_get_routine_by_uuid(ptr noundef %60)
  store ptr %61, ptr %24, align 8
  %62 = load ptr, ptr %24, align 8
  %63 = icmp ne ptr %62, null
  br i1 %63, label %64, label %74

64:                                               ; preds = %9
  %65 = load ptr, ptr %24, align 8
  %66 = load ptr, ptr %10, align 8
  %67 = load i32, ptr %11, align 4
  %68 = load ptr, ptr %12, align 8
  %69 = load ptr, ptr %23, align 8
  %70 = load ptr, ptr %14, align 8
  %71 = load ptr, ptr %15, align 8
  %72 = load i32, ptr %20, align 4
  %73 = call i32 %65(ptr noundef %66, i32 noundef %67, ptr noundef %68, ptr noundef %69, ptr noundef %70, ptr noundef %71, i32 noundef %72)
  store i32 %73, ptr %11, align 4
  br label %74

74:                                               ; preds = %64, %9
  %75 = load ptr, ptr %22, align 8
  %76 = load i32, ptr %11, align 4
  %77 = load i32, ptr %21, align 4
  %78 = sub i32 %76, %77
  call void @proto_item_set_len(ptr noundef %75, i32 noundef %78)
  %79 = load i32, ptr %11, align 4
  ret i32 %79
}

; Function Attrs: nounwind uwtable
define hidden i32 @dissect_dcom_OBJREF(ptr noundef %0, i32 noundef %1, ptr noundef %2, ptr noundef %3, ptr noundef %4, ptr noundef %5, i32 noundef %6, ptr noundef %7) #0 {
  %9 = alloca ptr, align 8
  %10 = alloca i32, align 4
  %11 = alloca ptr, align 8
  %12 = alloca ptr, align 8
  %13 = alloca ptr, align 8
  %14 = alloca ptr, align 8
  %15 = alloca i32, align 4
  %16 = alloca ptr, align 8
  %17 = alloca i32, align 4
  %18 = alloca i32, align 4
  %19 = alloca %struct._e_guid_t, align 4
  %20 = alloca %struct._e_guid_t, align 4
  %21 = alloca ptr, align 8
  %22 = alloca ptr, align 8
  %23 = alloca i32, align 4
  %24 = alloca i64, align 8
  %25 = alloca i64, align 8
  %26 = alloca %struct._e_guid_t, align 4
  %27 = alloca ptr, align 8
  %28 = alloca [4 x i8], align 1
  %29 = alloca %struct._address, align 8
  store ptr %0, ptr %9, align 8
  store i32 %1, ptr %10, align 4
  store ptr %2, ptr %11, align 8
  store ptr %3, ptr %12, align 8
  store ptr %4, ptr %13, align 8
  store ptr %5, ptr %14, align 8
  store i32 %6, ptr %15, align 4
  store ptr %7, ptr %16, align 8
  store i64 0, ptr %24, align 8
  store i64 0, ptr %25, align 8
  store ptr null, ptr %27, align 8
  call void @llvm.memset.p0.i64(ptr align 4 %26, i8 0, i64 16, i1 false)
  %30 = getelementptr inbounds [4 x i8], ptr %28, i64 0, i64 0
  call void @llvm.memset.p0.i64(ptr align 1 %30, i8 0, i64 4, i1 false)
  %31 = load ptr, ptr %12, align 8
  %32 = load i32, ptr @hf_dcom_objref, align 4
  %33 = load ptr, ptr %9, align 8
  %34 = load i32, ptr %10, align 4
  %35 = call ptr @proto_tree_add_item(ptr noundef %31, i32 noundef %32, ptr noundef %33, i32 noundef %34, i32 noundef 0, i32 noundef 0)
  store ptr %35, ptr %21, align 8
  %36 = load ptr, ptr %21, align 8
  %37 = load i32, ptr @ett_dcom_objref, align 4
  %38 = call ptr @proto_item_add_subtree(ptr noundef %36, i32 noundef %37)
  store ptr %38, ptr %22, align 8
  %39 = load ptr, ptr %9, align 8
  %40 = load i32, ptr %10, align 4
  %41 = load ptr, ptr %11, align 8
  %42 = load ptr, ptr %22, align 8
  %43 = load ptr, ptr %13, align 8
  %44 = load ptr, ptr %14, align 8
  %45 = load i32, ptr @hf_dcom_objref_signature, align 4
  %46 = call i32 @dissect_ndr_uint32(ptr noundef %39, i32 noundef %40, ptr noundef %41, ptr noundef %42, ptr noundef %43, ptr noundef %44, i32 noundef %45, ptr noundef %17)
  store i32 %46, ptr %10, align 4
  %47 = load i32, ptr %10, align 4
  %48 = sub i32 %47, 4
  store i32 %48, ptr %23, align 4
  %49 = load ptr, ptr %9, align 8
  %50 = load i32, ptr %10, align 4
  %51 = load ptr, ptr %11, align 8
  %52 = load ptr, ptr %22, align 8
  %53 = load ptr, ptr %13, align 8
  %54 = load ptr, ptr %14, align 8
  %55 = load i32, ptr @hf_dcom_objref_flags, align 4
  %56 = call i32 @dissect_ndr_uint32(ptr noundef %49, i32 noundef %50, ptr noundef %51, ptr noundef %52, ptr noundef %53, ptr noundef %54, i32 noundef %55, ptr noundef %18)
  store i32 %56, ptr %10, align 4
  %57 = load ptr, ptr %9, align 8
  %58 = load i32, ptr %10, align 4
  %59 = load ptr, ptr %11, align 8
  %60 = load ptr, ptr %22, align 8
  %61 = load ptr, ptr %13, align 8
  %62 = load ptr, ptr %14, align 8
  %63 = load i32, ptr @hf_dcom_iid, align 4
  %64 = call i32 @dissect_dcom_UUID(ptr noundef %57, i32 noundef %58, ptr noundef %59, ptr noundef %60, ptr noundef %61, ptr noundef %62, i32 noundef %63, ptr noundef %19)
  store i32 %64, ptr %10, align 4
  %65 = load i32, ptr %18, align 4
  switch i32 %65, label %119 [
    i32 1, label %66
    i32 2, label %84
    i32 4, label %110
  ]

66:                                               ; preds = %8
  %67 = load ptr, ptr %9, align 8
  %68 = load i32, ptr %10, align 4
  %69 = load ptr, ptr %11, align 8
  %70 = load ptr, ptr %22, align 8
  %71 = load ptr, ptr %13, align 8
  %72 = load ptr, ptr %14, align 8
  %73 = load i32, ptr %15, align 4
  %74 = call i32 @dissect_dcom_STDOBJREF(ptr noundef %67, i32 noundef %68, ptr noundef %69, ptr noundef %70, ptr noundef %71, ptr noundef %72, i32 noundef %73, ptr noundef %24, ptr noundef %25, ptr noundef %26)
  store i32 %74, ptr %10, align 4
  %75 = load ptr, ptr %9, align 8
  %76 = load i32, ptr %10, align 4
  %77 = load ptr, ptr %11, align 8
  %78 = load ptr, ptr %22, align 8
  %79 = load ptr, ptr %13, align 8
  %80 = load ptr, ptr %14, align 8
  %81 = load i32, ptr @hf_dcom_objref_resolver_address, align 4
  %82 = getelementptr inbounds [4 x i8], ptr %28, i64 0, i64 0
  %83 = call i32 @dissect_dcom_DUALSTRINGARRAY(ptr noundef %75, i32 noundef %76, ptr noundef %77, ptr noundef %78, ptr noundef %79, ptr noundef %80, i32 noundef %81, ptr noundef %82)
  store i32 %83, ptr %10, align 4
  br label %119

84:                                               ; preds = %8
  %85 = load ptr, ptr %9, align 8
  %86 = load i32, ptr %10, align 4
  %87 = load ptr, ptr %11, align 8
  %88 = load ptr, ptr %22, align 8
  %89 = load ptr, ptr %13, align 8
  %90 = load ptr, ptr %14, align 8
  %91 = load i32, ptr %15, align 4
  %92 = call i32 @dissect_dcom_STDOBJREF(ptr noundef %85, i32 noundef %86, ptr noundef %87, ptr noundef %88, ptr noundef %89, ptr noundef %90, i32 noundef %91, ptr noundef %24, ptr noundef %25, ptr noundef %19)
  store i32 %92, ptr %10, align 4
  %93 = load ptr, ptr %9, align 8
  %94 = load i32, ptr %10, align 4
  %95 = load ptr, ptr %11, align 8
  %96 = load ptr, ptr %22, align 8
  %97 = load ptr, ptr %13, align 8
  %98 = load ptr, ptr %14, align 8
  %99 = load i32, ptr @hf_dcom_clsid, align 4
  %100 = call i32 @dissect_dcom_UUID(ptr noundef %93, i32 noundef %94, ptr noundef %95, ptr noundef %96, ptr noundef %97, ptr noundef %98, i32 noundef %99, ptr noundef %20)
  store i32 %100, ptr %10, align 4
  %101 = load ptr, ptr %9, align 8
  %102 = load i32, ptr %10, align 4
  %103 = load ptr, ptr %11, align 8
  %104 = load ptr, ptr %22, align 8
  %105 = load ptr, ptr %13, align 8
  %106 = load ptr, ptr %14, align 8
  %107 = load i32, ptr @hf_dcom_objref_resolver_address, align 4
  %108 = getelementptr inbounds [4 x i8], ptr %28, i64 0, i64 0
  %109 = call i32 @dissect_dcom_DUALSTRINGARRAY(ptr noundef %101, i32 noundef %102, ptr noundef %103, ptr noundef %104, ptr noundef %105, ptr noundef %106, i32 noundef %107, ptr noundef %108)
  store i32 %109, ptr %10, align 4
  br label %119

110:                                              ; preds = %8
  %111 = load ptr, ptr %9, align 8
  %112 = load i32, ptr %10, align 4
  %113 = load ptr, ptr %11, align 8
  %114 = load ptr, ptr %22, align 8
  %115 = load ptr, ptr %13, align 8
  %116 = load ptr, ptr %14, align 8
  %117 = load i32, ptr %15, align 4
  %118 = call i32 @dissect_dcom_CUSTOBJREF(ptr noundef %111, i32 noundef %112, ptr noundef %113, ptr noundef %114, ptr noundef %115, ptr noundef %116, i32 noundef %117, ptr noundef %20, ptr noundef %19)
  store i32 %118, ptr %10, align 4
  br label %119

119:                                              ; preds = %110, %84, %66, %8
  %120 = load i32, ptr %18, align 4
  %121 = icmp eq i32 %120, 1
  br i1 %121, label %125, label %122

122:                                              ; preds = %119
  %123 = load i32, ptr %18, align 4
  %124 = icmp eq i32 %123, 2
  br i1 %124, label %125, label %138

125:                                              ; preds = %122, %119
  %126 = load ptr, ptr %11, align 8
  %127 = getelementptr inbounds %struct._packet_info, ptr %126, i32 0, i32 14
  %128 = getelementptr inbounds %struct._address, ptr %127, i32 0, i32 0
  %129 = load i32, ptr %128, align 8
  %130 = icmp eq i32 %129, 2
  br i1 %130, label %131, label %137

131:                                              ; preds = %125
  %132 = getelementptr inbounds [4 x i8], ptr %28, i64 0, i64 0
  call void @set_address(ptr noundef %29, i32 noundef 2, i32 noundef 4, ptr noundef %132)
  %133 = load ptr, ptr %11, align 8
  %134 = load i64, ptr %24, align 8
  %135 = load i64, ptr %25, align 8
  %136 = call ptr @dcom_interface_new(ptr noundef %133, ptr noundef %29, ptr noundef %19, i64 noundef %134, i64 noundef %135, ptr noundef %26)
  store ptr %136, ptr %27, align 8
  br label %137

137:                                              ; preds = %131, %125
  br label %138

138:                                              ; preds = %137, %122
  %139 = load ptr, ptr %16, align 8
  %140 = icmp ne ptr %139, null
  br i1 %140, label %141, label %144

141:                                              ; preds = %138
  %142 = load ptr, ptr %27, align 8
  %143 = load ptr, ptr %16, align 8
  store ptr %142, ptr %143, align 8
  br label %144

144:                                              ; preds = %141, %138
  %145 = load ptr, ptr %21, align 8
  %146 = load i32, ptr %10, align 4
  %147 = load i32, ptr %23, align 4
  %148 = sub i32 %146, %147
  call void @proto_item_set_len(ptr noundef %145, i32 noundef %148)
  %149 = load i32, ptr %10, align 4
  ret i32 %149
}