; Function Attrs: nounwind uwtable
define hidden i32 @dissect_dcom_OBJREF(ptr noundef %0, i32 noundef %1, ptr noundef %2, ptr noundef %3, ptr noundef %4, ptr noundef %5, i32 %6, ptr noundef writeonly %7) local_unnamed_addr #1 {
  %9 = alloca i32, align 4
  %10 = alloca i32, align 4
  %11 = alloca i32, align 4
  %12 = alloca i32, align 4
  %13 = alloca %struct._e_guid_t, align 4
  %14 = alloca %struct._e_guid_t, align 4
  %15 = alloca i64, align 8
  %16 = alloca i64, align 8
  %17 = alloca %struct._e_guid_t, align 4
  %18 = alloca [4 x i8], align 4
  %19 = alloca %struct._address, align 8
  store i64 0, ptr %15, align 8
  store i64 0, ptr %16, align 8
  call void @llvm.memset.p0.i64(ptr noundef nonnull align 4 dereferenceable(16) %17, i8 0, i64 16, i1 false)
  store i32 0, ptr %18, align 4
  %20 = load i32, ptr @hf_dcom_objref, align 4
  %21 = tail call ptr @proto_tree_add_item(ptr noundef %3, i32 noundef %20, ptr noundef %0, i32 noundef %1, i32 noundef 0, i32 noundef 0) #11
  %22 = load i32, ptr @ett_dcom_objref, align 4
  %23 = tail call ptr @proto_item_add_subtree(ptr noundef %21, i32 noundef %22) #11
  %24 = load i32, ptr @hf_dcom_objref_signature, align 4
  %25 = call i32 @dissect_ndr_uint32(ptr noundef %0, i32 noundef %1, ptr noundef %2, ptr noundef %23, ptr noundef %4, ptr noundef %5, i32 noundef %24, ptr noundef nonnull %11) #11
  %26 = load i32, ptr @hf_dcom_objref_flags, align 4
  %27 = call i32 @dissect_ndr_uint32(ptr noundef %0, i32 noundef %25, ptr noundef %2, ptr noundef %23, ptr noundef %4, ptr noundef %5, i32 noundef %26, ptr noundef nonnull %12) #11
  %28 = load i32, ptr @hf_dcom_iid, align 4
  %29 = call i32 @dissect_dcom_UUID(ptr noundef %0, i32 noundef %27, ptr noundef %2, ptr noundef %23, ptr noundef %4, ptr noundef %5, i32 noundef %28, ptr noundef nonnull %13)
  %30 = load i32, ptr %12, align 4
  switch i32 %30, label %64 [
    i32 1, label %31
    i32 2, label %35
    i32 4, label %41
  ]

31:                                               ; preds = %8
  %32 = call i32 @dissect_dcom_STDOBJREF(ptr noundef %0, i32 noundef %29, ptr noundef %2, ptr noundef %23, ptr noundef %4, ptr noundef %5, i32 poison, ptr noundef nonnull %15, ptr noundef nonnull %16, ptr noundef nonnull %17)
  %33 = load i32, ptr @hf_dcom_objref_resolver_address, align 4
  %34 = call i32 @dissect_dcom_DUALSTRINGARRAY(ptr noundef %0, i32 noundef %32, ptr noundef %2, ptr noundef %23, ptr noundef %4, ptr noundef %5, i32 noundef %33, ptr noundef nonnull %18)
  br label %64

35:                                               ; preds = %8
  %36 = call i32 @dissect_dcom_STDOBJREF(ptr noundef %0, i32 noundef %29, ptr noundef %2, ptr noundef %23, ptr noundef %4, ptr noundef %5, i32 poison, ptr noundef nonnull %15, ptr noundef nonnull %16, ptr noundef nonnull %13)
  %37 = load i32, ptr @hf_dcom_clsid, align 4
  %38 = call i32 @dissect_dcom_UUID(ptr noundef %0, i32 noundef %36, ptr noundef %2, ptr noundef %23, ptr noundef %4, ptr noundef %5, i32 noundef %37, ptr noundef nonnull %14)
  %39 = load i32, ptr @hf_dcom_objref_resolver_address, align 4
  %40 = call i32 @dissect_dcom_DUALSTRINGARRAY(ptr noundef %0, i32 noundef %38, ptr noundef %2, ptr noundef %23, ptr noundef %4, ptr noundef %5, i32 noundef %39, ptr noundef nonnull %18)
  br label %64

41:                                               ; preds = %8
  call void @llvm.lifetime.start.p0(i64 4, ptr nonnull %9)
  call void @llvm.lifetime.start.p0(i64 4, ptr nonnull %10)
  %42 = load i32, ptr @hf_dcom_custobjref, align 4
  %43 = call ptr @proto_tree_add_item(ptr noundef %23, i32 noundef %42, ptr noundef %0, i32 noundef %29, i32 noundef 0, i32 noundef 0) #11
  %44 = load i32, ptr @ett_dcom_custobjref, align 4
  %45 = call ptr @proto_item_add_subtree(ptr noundef %43, i32 noundef %44) #11
  %46 = load i32, ptr @hf_dcom_clsid, align 4
  %47 = call i32 @dissect_dcom_UUID(ptr noundef %0, i32 noundef %29, ptr noundef %2, ptr noundef %45, ptr noundef %4, ptr noundef %5, i32 noundef %46, ptr noundef nonnull %14)
  %48 = load i32, ptr @hf_dcom_objref_cbextension, align 4
  %49 = call i32 @dissect_ndr_uint32(ptr noundef %0, i32 noundef %47, ptr noundef %2, ptr noundef %45, ptr noundef %4, ptr noundef %5, i32 noundef %48, ptr noundef nonnull %9) #11
  %50 = load i32, ptr @hf_dcom_objref_size, align 4
  %51 = call i32 @dissect_ndr_uint32(ptr noundef %0, i32 noundef %49, ptr noundef %2, ptr noundef %45, ptr noundef %4, ptr noundef %5, i32 noundef %50, ptr noundef nonnull %10) #11
  %bcmp.i.i = call i32 @bcmp(ptr noundef nonnull readonly dereferenceable(16) %13, ptr noundef nonnull dereferenceable(16) @uuid_null, i64 16)
  %52 = icmp eq i32 %bcmp.i.i, 0
  %.011.i.i = load ptr, ptr @dcom_marshalers, align 8
  %.not12.i.i = icmp eq ptr %.011.i.i, null
  %or.cond.i.i = select i1 %52, i1 true, i1 %.not12.i.i
  br i1 %or.cond.i.i, label %dissect_dcom_CUSTOBJREF.exit, label %.lr.ph.i.i

53:                                               ; preds = %.lr.ph.i.i
  %54 = getelementptr inbounds nuw i8, ptr %.013.i.i, i64 8
  %.0.i.i = load ptr, ptr %54, align 8
  %.not.i.i = icmp eq ptr %.0.i.i, null
  br i1 %.not.i.i, label %dissect_dcom_CUSTOBJREF.exit, label %.lr.ph.i.i, !llvm.loop !17

.lr.ph.i.i:                                       ; preds = %41, %53
  %.013.i.i = phi ptr [ %.0.i.i, %53 ], [ %.011.i.i, %41 ]
  %55 = load ptr, ptr %.013.i.i, align 8
  %56 = getelementptr inbounds nuw i8, ptr %55, i64 16
  %bcmp10.i.i = call i32 @bcmp(ptr noundef nonnull dereferenceable(16) %56, ptr noundef nonnull readonly dereferenceable(16) %13, i64 16)
  %57 = icmp eq i32 %bcmp10.i.i, 0
  br i1 %57, label %dcom_get_routine_by_uuid.exit.i, label %53

dcom_get_routine_by_uuid.exit.i:                  ; preds = %.lr.ph.i.i
  %58 = getelementptr inbounds nuw i8, ptr %55, i64 32
  %59 = load ptr, ptr %58, align 8
  %.not.i = icmp eq ptr %59, null
  br i1 %.not.i, label %dissect_dcom_CUSTOBJREF.exit, label %60

60:                                               ; preds = %dcom_get_routine_by_uuid.exit.i
  %61 = load i32, ptr %10, align 4
  %62 = call i32 %59(ptr noundef %0, i32 noundef %51, ptr noundef %2, ptr noundef %45, ptr noundef %4, ptr noundef %5, i32 noundef %61) #11
  br label %dissect_dcom_CUSTOBJREF.exit

dissect_dcom_CUSTOBJREF.exit:                     ; preds = %53, %41, %dcom_get_routine_by_uuid.exit.i, %60
  %.0.i = phi i32 [ %62, %60 ], [ %51, %dcom_get_routine_by_uuid.exit.i ], [ %51, %41 ], [ %51, %53 ]
  %63 = sub i32 %.0.i, %29
  call void @proto_item_set_len(ptr noundef %43, i32 noundef %63) #11
  call void @llvm.lifetime.end.p0(i64 4, ptr nonnull %9)
  call void @llvm.lifetime.end.p0(i64 4, ptr nonnull %10)
  br label %64

64:                                               ; preds = %dissect_dcom_CUSTOBJREF.exit, %35, %31, %8
  %.071 = phi i32 [ %29, %8 ], [ %.0.i, %dissect_dcom_CUSTOBJREF.exit ], [ %40, %35 ], [ %34, %31 ]
  %65 = load i32, ptr %12, align 4
  %66 = add i32 %65, -1
  %or.cond = icmp ult i32 %66, 2
  br i1 %or.cond, label %67, label %78

67:                                               ; preds = %64
  %68 = getelementptr inbounds nuw i8, ptr %2, i64 160
  %69 = load i32, ptr %68, align 8
  %70 = icmp eq i32 %69, 2
  br i1 %70, label %71, label %78

71:                                               ; preds = %67
  store i32 2, ptr %19, align 8
  %72 = getelementptr inbounds nuw i8, ptr %19, i64 4
  store i32 4, ptr %72, align 4
  %73 = getelementptr inbounds nuw i8, ptr %19, i64 8
  store ptr %18, ptr %73, align 8
  %74 = getelementptr inbounds nuw i8, ptr %19, i64 16
  store ptr null, ptr %74, align 8
  %75 = load i64, ptr %15, align 8
  %76 = load i64, ptr %16, align 8
  %77 = call ptr @dcom_interface_new(ptr noundef nonnull %2, ptr noundef nonnull %19, ptr noundef nonnull %13, i64 noundef %75, i64 noundef %76, ptr noundef nonnull %17)
  br label %78

78:                                               ; preds = %67, %71, %64
  %.0 = phi ptr [ %77, %71 ], [ null, %67 ], [ null, %64 ]
  %.not = icmp eq ptr %7, null
  br i1 %.not, label %80, label %79

79:                                               ; preds = %78
  store ptr %.0, ptr %7, align 8
  br label %80

80:                                               ; preds = %79, %78
  %reass.sub = sub i32 %.071, %25
  %81 = add i32 %reass.sub, 4
  call void @proto_item_set_len(ptr noundef %21, i32 noundef %81) #11
  ret i32 %.071
}